target datalayout = "e-m:e-p270:32:32-p271:32:32-p272:64:64-i64:64-i128:128-f80:128-n8:16:32:64-S128"
target triple = "x86_64-pc-linux-gnu"

%struct.PQExpBufferData = type { ptr, i64, i64 }

@binary_upgrade = internal global i32 0, align 4
@no_comments = internal global i32 0, align 4
@no_security_labels = internal global i32 0, align 4
@skip_acls = internal global i8 0, align 1
@.str.80 = private unnamed_addr constant [3 x i8] c"%s\00", align 1
@OPF = internal global ptr null, align 8
@server_version = internal global i32 0, align 4
@.str.120 = private unnamed_addr constant [1 x i8] zeroinitializer, align 1
@.str.186 = private unnamed_addr constant [3 x i8] c"\0A\0A\00", align 1
@.str.233 = private unnamed_addr constant [3 x i8] c";\0A\00", align 1
@.str.267 = private unnamed_addr constant [23 x i8] c"--\0A-- Tablespaces\0A--\0A\0A\00", align 1
@.str.268 = private unnamed_addr constant [57 x i8] c"\0A-- For binary upgrade, must preserve pg_tablespace oid\0A\00", align 1
@.str.269 = private unnamed_addr constant [84 x i8] c"SELECT pg_catalog.binary_upgrade_set_next_pg_tablespace_oid('%u'::pg_catalog.oid);\0A\00", align 1
@.str.270 = private unnamed_addr constant [21 x i8] c"CREATE TABLESPACE %s\00", align 1
@.str.271 = private unnamed_addr constant [10 x i8] c" OWNER %s\00", align 1
@.str.272 = private unnamed_addr constant [11 x i8] c" LOCATION \00", align 1
@.str.273 = private unnamed_addr constant [31 x i8] c"ALTER TABLESPACE %s SET (%s);\0A\00", align 1
@.str.274 = private unnamed_addr constant [11 x i8] c"TABLESPACE\00", align 1
@.str.275 = private unnamed_addr constant [50 x i8] c"could not parse ACL list (%s) for tablespace \22%s\22\00", align 1
@.str.276 = private unnamed_addr constant [29 x i8] c"COMMENT ON TABLESPACE %s IS \00", align 1
@.str.277 = private unnamed_addr constant [14 x i8] c"pg_tablespace\00", align 1

; Function Attrs: nounwind uwtable
define internal void @buildShSecLabels(ptr noundef %0, ptr noundef %1, i32 noundef %2, ptr noundef %3, ptr noundef %4, ptr noundef %5) #0 {
  %7 = alloca ptr, align 8
  %8 = alloca ptr, align 8
  %9 = alloca i32, align 4
  %10 = alloca ptr, align 8
  %11 = alloca ptr, align 8
  %12 = alloca ptr, align 8
  %13 = alloca ptr, align 8
  %14 = alloca ptr, align 8
  store ptr %0, ptr %7, align 8
  store ptr %1, ptr %8, align 8
  store i32 %2, ptr %9, align 4
  store ptr %3, ptr %10, align 8
  store ptr %4, ptr %11, align 8
  store ptr %5, ptr %12, align 8
  call void @llvm.lifetime.start.p0(i64 8, ptr %13) #11
  %15 = call ptr @createPQExpBuffer()
  store ptr %15, ptr %13, align 8
  call void @llvm.lifetime.start.p0(i64 8, ptr %14) #11
  %16 = load ptr, ptr %8, align 8
  %17 = load i32, ptr %9, align 4
  %18 = load ptr, ptr %13, align 8
  call void @buildShSecLabelQuery(ptr noundef %16, i32 noundef %17, ptr noundef %18)
  %19 = load ptr, ptr %7, align 8
  %20 = load ptr, ptr %13, align 8
  %21 = getelementptr inbounds nuw %struct.PQExpBufferData, ptr %20, i32 0, i32 0
  %22 = load ptr, ptr %21, align 8
  %23 = call ptr @executeQuery(ptr noundef %19, ptr noundef %22)
  store ptr %23, ptr %14, align 8
  %24 = load ptr, ptr %7, align 8
  %25 = load ptr, ptr %14, align 8
  %26 = load ptr, ptr %12, align 8
  %27 = load ptr, ptr %10, align 8
  %28 = load ptr, ptr %11, align 8
  call void @emitShSecLabels(ptr noundef %24, ptr noundef %25, ptr noundef %26, ptr noundef %27, ptr noundef %28)
  %29 = load ptr, ptr %14, align 8
  call void @PQclear(ptr noundef %29)
  %30 = load ptr, ptr %13, align 8
  call void @destroyPQExpBuffer(ptr noundef %30)
  call void @llvm.lifetime.end.p0(i64 8, ptr %14) #11
  call void @llvm.lifetime.end.p0(i64 8, ptr %13) #11
  ret void
}

; Function Attrs: nounwind uwtable
define internal void @dumpTablespaces(ptr noundef %0) #0 {
  %2 = alloca ptr, align 8
  %3 = alloca ptr, align 8
  %4 = alloca i32, align 4
  %5 = alloca ptr, align 8
  %6 = alloca i32, align 4
  %7 = alloca ptr, align 8
  %8 = alloca ptr, align 8
  %9 = alloca ptr, align 8
  %10 = alloca ptr, align 8
  %11 = alloca ptr, align 8
  %12 = alloca ptr, align 8
  %13 = alloca ptr, align 8
  %14 = alloca ptr, align 8
  store ptr %0, ptr %2, align 8
  call void @llvm.lifetime.start.p0(i64 8, ptr %3) #11
  call void @llvm.lifetime.start.p0(i64 4, ptr %4) #11
  %15 = load ptr, ptr %2, align 8
  %16 = call ptr @executeQuery(ptr noundef %15, ptr noundef @.str.266)
  store ptr %16, ptr %3, align 8
  %17 = load ptr, ptr %3, align 8
  %18 = call i32 @PQntuples(ptr noundef %17)
  %19 = icmp sgt i32 %18, 0
  br i1 %19, label %20, label %23

20:                                               ; preds = %1
  %21 = load ptr, ptr @OPF, align 8
  %22 = call i32 (ptr, ptr, ...) @pg_fprintf(ptr noundef %21, ptr noundef @.str.267)
  br label %23

23:                                               ; preds = %20, %1
  store i32 0, ptr %4, align 4
  br label %24

24:                                               ; preds = %149, %23
  %25 = load i32, ptr %4, align 4
  %26 = load ptr, ptr %3, align 8
  %27 = call i32 @PQntuples(ptr noundef %26)
  %28 = icmp slt i32 %25, %27
  br i1 %28, label %29, label %152

29:                                               ; preds = %24
  call void @llvm.lifetime.start.p0(i64 8, ptr %5) #11
  %30 = call ptr @createPQExpBuffer()
  store ptr %30, ptr %5, align 8
  call void @llvm.lifetime.start.p0(i64 4, ptr %6) #11
  %31 = load ptr, ptr %3, align 8
  %32 = load i32, ptr %4, align 4
  %33 = call ptr @PQgetvalue(ptr noundef %31, i32 noundef %32, i32 noundef 0)
  %34 = call i64 @strtoul(ptr noundef %33, ptr noundef null, i32 noundef 10) #11
  %35 = trunc i64 %34 to i32
  store i32 %35, ptr %6, align 4
  call void @llvm.lifetime.start.p0(i64 8, ptr %7) #11
  %36 = load ptr, ptr %3, align 8
  %37 = load i32, ptr %4, align 4
  %38 = call ptr @PQgetvalue(ptr noundef %36, i32 noundef %37, i32 noundef 1)
  store ptr %38, ptr %7, align 8
  call void @llvm.lifetime.start.p0(i64 8, ptr %8) #11
  %39 = load ptr, ptr %3, align 8
  %40 = load i32, ptr %4, align 4
  %41 = call ptr @PQgetvalue(ptr noundef %39, i32 noundef %40, i32 noundef 2)
  store ptr %41, ptr %8, align 8
  call void @llvm.lifetime.start.p0(i64 8, ptr %9) #11
  %42 = load ptr, ptr %3, align 8
  %43 = load i32, ptr %4, align 4
  %44 = call ptr @PQgetvalue(ptr noundef %42, i32 noundef %43, i32 noundef 3)
  store ptr %44, ptr %9, align 8
  call void @llvm.lifetime.start.p0(i64 8, ptr %10) #11
  %45 = load ptr, ptr %3, align 8
  %46 = load i32, ptr %4, align 4
  %47 = call ptr @PQgetvalue(ptr noundef %45, i32 noundef %46, i32 noundef 4)
  store ptr %47, ptr %10, align 8
  call void @llvm.lifetime.start.p0(i64 8, ptr %11) #11
  %48 = load ptr, ptr %3, align 8
  %49 = load i32, ptr %4, align 4
  %50 = call ptr @PQgetvalue(ptr noundef %48, i32 noundef %49, i32 noundef 5)
  store ptr %50, ptr %11, align 8
  call void @llvm.lifetime.start.p0(i64 8, ptr %12) #11
  %51 = load ptr, ptr %3, align 8
  %52 = load i32, ptr %4, align 4
  %53 = call ptr @PQgetvalue(ptr noundef %51, i32 noundef %52, i32 noundef 6)
  store ptr %53, ptr %12, align 8
  call void @llvm.lifetime.start.p0(i64 8, ptr %13) #11
  %54 = load ptr, ptr %3, align 8
  %55 = load i32, ptr %4, align 4
  %56 = call ptr @PQgetvalue(ptr noundef %54, i32 noundef %55, i32 noundef 7)
  store ptr %56, ptr %13, align 8
  call void @llvm.lifetime.start.p0(i64 8, ptr %14) #11
  %57 = load ptr, ptr %7, align 8
  %58 = call ptr @fmtId(ptr noundef %57)
  %59 = call ptr @pg_strdup(ptr noundef %58)
  store ptr %59, ptr %14, align 8
  %60 = load i32, ptr @binary_upgrade, align 4
  %61 = icmp ne i32 %60, 0
  br i1 %61, label %62, label %66

62:                                               ; preds = %29
  %63 = load ptr, ptr %5, align 8
  call void @appendPQExpBufferStr(ptr noundef %63, ptr noundef @.str.268)
  %64 = load ptr, ptr %5, align 8
  %65 = load i32, ptr %6, align 4
  call void (ptr, ptr, ...) @appendPQExpBuffer(ptr noundef %64, ptr noundef @.str.269, i32 noundef %65)
  br label %66

66:                                               ; preds = %62, %29
  %67 = load ptr, ptr %5, align 8
  %68 = load ptr, ptr %14, align 8
  call void (ptr, ptr, ...) @appendPQExpBuffer(ptr noundef %67, ptr noundef @.str.270, ptr noundef %68)
  %69 = load ptr, ptr %5, align 8
  %70 = load ptr, ptr %8, align 8
  %71 = call ptr @fmtId(ptr noundef %70)
  call void (ptr, ptr, ...) @appendPQExpBuffer(ptr noundef %69, ptr noundef @.str.271, ptr noundef %71)
  %72 = load ptr, ptr %5, align 8
  call void @appendPQExpBufferStr(ptr noundef %72, ptr noundef @.str.272)
  %73 = load ptr, ptr %9, align 8
  %74 = getelementptr inbounds i8, ptr %73, i64 0
  %75 = load i8, ptr %74, align 1
  %76 = sext i8 %75 to i32
  %77 = icmp eq i32 %76, 47
  br i1 %77, label %78, label %82

78:                                               ; preds = %66
  %79 = load ptr, ptr %5, align 8
  %80 = load ptr, ptr %9, align 8
  %81 = load ptr, ptr %2, align 8
  call void @appendStringLiteralConn(ptr noundef %79, ptr noundef %80, ptr noundef %81)
  br label %85

82:                                               ; preds = %66
  %83 = load ptr, ptr %5, align 8
  %84 = load ptr, ptr %2, align 8
  call void @appendStringLiteralConn(ptr noundef %83, ptr noundef @.str.120, ptr noundef %84)
  br label %85

85:                                               ; preds = %82, %78
  %86 = load ptr, ptr %5, align 8
  call void @appendPQExpBufferStr(ptr noundef %86, ptr noundef @.str.233)
  %87 = load ptr, ptr %12, align 8
  %88 = icmp ne ptr %87, null
  br i1 %88, label %89, label %99

89:                                               ; preds = %85
  %90 = load ptr, ptr %12, align 8
  %91 = getelementptr inbounds i8, ptr %90, i64 0
  %92 = load i8, ptr %91, align 1
  %93 = sext i8 %92 to i32
  %94 = icmp ne i32 %93, 0
  br i1 %94, label %95, label %99

95:                                               ; preds = %89
  %96 = load ptr, ptr %5, align 8
  %97 = load ptr, ptr %14, align 8
  %98 = load ptr, ptr %12, align 8
  call void (ptr, ptr, ...) @appendPQExpBuffer(ptr noundef %96, ptr noundef @.str.273, ptr noundef %97, ptr noundef %98)
  br label %99

99:                                               ; preds = %95, %89, %85
  %100 = load i8, ptr @skip_acls, align 1, !range !6, !noundef !7
  %101 = trunc i8 %100 to i1
  br i1 %101, label %114, label %102

102:                                              ; preds = %99
  %103 = load ptr, ptr %14, align 8
  %104 = load ptr, ptr %10, align 8
  %105 = load ptr, ptr %11, align 8
  %106 = load ptr, ptr %8, align 8
  %107 = load i32, ptr @server_version, align 4
  %108 = load ptr, ptr %5, align 8
  %109 = call zeroext i1 @buildACLCommands(ptr noundef %103, ptr noundef null, ptr noundef null, ptr noundef @.str.274, ptr noundef %104, ptr noundef %105, ptr noundef %106, ptr noundef @.str.120, i32 noundef %107, ptr noundef %108)
  br i1 %109, label %114, label %110

110:                                              ; preds = %102
  %111 = load ptr, ptr %10, align 8
  %112 = load ptr, ptr %7, align 8
  call void (i32, i32, ptr, ...) @pg_log_generic(i32 noundef 4, i32 noundef 0, ptr noundef @.str.275, ptr noundef %111, ptr noundef %112)
  %113 = load ptr, ptr %2, align 8
  call void @PQfinish(ptr noundef %113)
  call void @exit(i32 noundef 1) #13
  unreachable

114:                                              ; preds = %102, %99
  %115 = load i32, ptr @no_comments, align 4
  %116 = icmp ne i32 %115, 0
  br i1 %116, label %133, label %117

117:                                              ; preds = %114
  %118 = load ptr, ptr %13, align 8
  %119 = icmp ne ptr %118, null
  br i1 %119, label %120, label %133

120:                                              ; preds = %117
  %121 = load ptr, ptr %13, align 8
  %122 = getelementptr inbounds i8, ptr %121, i64 0
  %123 = load i8, ptr %122, align 1
  %124 = sext i8 %123 to i32
  %125 = icmp ne i32 %124, 0
  br i1 %125, label %126, label %133

126:                                              ; preds = %120
  %127 = load ptr, ptr %5, align 8
  %128 = load ptr, ptr %14, align 8
  call void (ptr, ptr, ...) @appendPQExpBuffer(ptr noundef %127, ptr noundef @.str.276, ptr noundef %128)
  %129 = load ptr, ptr %5, align 8
  %130 = load ptr, ptr %13, align 8
  %131 = load ptr, ptr %2, align 8
  call void @appendStringLiteralConn(ptr noundef %129, ptr noundef %130, ptr noundef %131)
  %132 = load ptr, ptr %5, align 8
  call void @appendPQExpBufferStr(ptr noundef %132, ptr noundef @.str.233)
  br label %133

133:                                              ; preds = %126, %120, %117, %114
  %134 = load i32, ptr @no_security_labels, align 4
  %135 = icmp ne i32 %134, 0
  br i1 %135, label %141, label %136

136:                                              ; preds = %133
  %137 = load ptr, ptr %2, align 8
  %138 = load i32, ptr %6, align 4
  %139 = load ptr, ptr %7, align 8
  %140 = load ptr, ptr %5, align 8
  call void @buildShSecLabels(ptr noundef %137, ptr noundef @.str.277, i32 noundef %138, ptr noundef @.str.274, ptr noundef %139, ptr noundef %140)
  br label %141

141:                                              ; preds = %136, %133
  %142 = load ptr, ptr @OPF, align 8
  %143 = load ptr, ptr %5, align 8
  %144 = getelementptr inbounds nuw %struct.PQExpBufferData, ptr %143, i32 0, i32 0
  %145 = load ptr, ptr %144, align 8
  %146 = call i32 (ptr, ptr, ...) @pg_fprintf(ptr noundef %142, ptr noundef @.str.80, ptr noundef %145)
  %147 = load ptr, ptr %14, align 8
  call void @free(ptr noundef %147) #11
  %148 = load ptr, ptr %5, align 8
  call void @destroyPQExpBuffer(ptr noundef %148)
  call void @llvm.lifetime.end.p0(i64 8, ptr %14) #11
  call void @llvm.lifetime.end.p0(i64 8, ptr %13) #11
  call void @llvm.lifetime.end.p0(i64 8, ptr %12) #11
  call void @llvm.lifetime.end.p0(i64 8, ptr %11) #11
  call void @llvm.lifetime.end.p0(i64 8, ptr %10) #11
  call void @llvm.lifetime.end.p0(i64 8, ptr %9) #11
  call void @llvm.lifetime.end.p0(i64 8, ptr %8) #11
  call void @llvm.lifetime.end.p0(i64 8, ptr %7) #11
  call void @llvm.lifetime.end.p0(i64 4, ptr %6) #11
  call void @llvm.lifetime.end.p0(i64 8, ptr %5) #11
  br label %149

149:                                              ; preds = %141
  %150 = load i32, ptr %4, align 4
  %151 = add i32 %150, 1
  store i32 %151, ptr %4, align 4
  br label %24, !llvm.loop !24

152:                                              ; preds = %24
  %153 = load ptr, ptr %3, align 8
  call void @PQclear(ptr noundef %153)
  %154 = load ptr, ptr @OPF, align 8
  %155 = call i32 (ptr, ptr, ...) @pg_fprintf(ptr noundef %154, ptr noundef @.str.186)
  call void @llvm.lifetime.end.p0(i64 4, ptr %4) #11
  call void @llvm.lifetime.end.p0(i64 8, ptr %3) #11
  ret void
}