; Function Attrs: nounwind uwtable
define internal fastcc void @dumpTablespaces(ptr noundef nonnull %0) unnamed_addr #4 {
  %2 = tail call fastcc ptr @executeQuery(ptr noundef %0, ptr noundef nonnull @.str.266)
  %3 = tail call i32 @PQntuples(ptr noundef nonnull %2) #15
  %4 = icmp sgt i32 %3, 0
  br i1 %4, label %5, label %8

5:                                                ; preds = %1
  %6 = load ptr, ptr @OPF, align 8
  %7 = tail call i32 (ptr, ptr, ...) @pg_fprintf(ptr noundef %6, ptr noundef nonnull @.str.267) #15
  br label %8

8:                                                ; preds = %5, %1
  %9 = tail call i32 @PQntuples(ptr noundef nonnull %2) #15
  %10 = icmp sgt i32 %9, 0
  br i1 %10, label %.lr.ph, label %._crit_edge

.lr.ph:                                           ; preds = %8, %51
  %.074 = phi i32 [ %55, %51 ], [ 0, %8 ]
  %11 = tail call ptr @createPQExpBuffer() #15
  %12 = tail call ptr @PQgetvalue(ptr noundef nonnull %2, i32 noundef %.074, i32 noundef 0) #15
  %13 = tail call i64 @strtoul(ptr noundef captures(none) %12, ptr noundef null, i32 noundef 10) #15
  %14 = trunc i64 %13 to i32
  %15 = tail call ptr @PQgetvalue(ptr noundef nonnull %2, i32 noundef %.074, i32 noundef 1) #15
  %16 = tail call ptr @PQgetvalue(ptr noundef nonnull %2, i32 noundef %.074, i32 noundef 2) #15
  %17 = tail call ptr @PQgetvalue(ptr noundef nonnull %2, i32 noundef %.074, i32 noundef 3) #15
  %18 = tail call ptr @PQgetvalue(ptr noundef nonnull %2, i32 noundef %.074, i32 noundef 4) #15
  %19 = tail call ptr @PQgetvalue(ptr noundef nonnull %2, i32 noundef %.074, i32 noundef 5) #15
  %20 = tail call ptr @PQgetvalue(ptr noundef nonnull %2, i32 noundef %.074, i32 noundef 6) #15
  %21 = tail call ptr @PQgetvalue(ptr noundef nonnull %2, i32 noundef %.074, i32 noundef 7) #15
  %22 = tail call ptr @fmtId(ptr noundef %15) #15
  %23 = tail call ptr @pg_strdup(ptr noundef %22) #15
  %24 = load i32, ptr @binary_upgrade, align 4
  %.not = icmp eq i32 %24, 0
  br i1 %.not, label %26, label %25

25:                                               ; preds = %.lr.ph
  tail call void @appendPQExpBufferStr(ptr noundef %11, ptr noundef nonnull @.str.268) #15
  tail call void (ptr, ptr, ...) @appendPQExpBuffer(ptr noundef %11, ptr noundef nonnull @.str.269, i32 noundef %14) #15
  br label %26

26:                                               ; preds = %25, %.lr.ph
  tail call void (ptr, ptr, ...) @appendPQExpBuffer(ptr noundef %11, ptr noundef nonnull @.str.270, ptr noundef %23) #15
  %27 = tail call ptr @fmtId(ptr noundef %16) #15
  tail call void (ptr, ptr, ...) @appendPQExpBuffer(ptr noundef %11, ptr noundef nonnull @.str.271, ptr noundef %27) #15
  tail call void @appendPQExpBufferStr(ptr noundef %11, ptr noundef nonnull @.str.272) #15
  %28 = load i8, ptr %17, align 1
  %29 = icmp eq i8 %28, 47
  %..str.120 = select i1 %29, ptr %17, ptr @.str.120
  tail call void @appendStringLiteralConn(ptr noundef %11, ptr noundef nonnull %..str.120, ptr noundef nonnull %0) #15
  tail call void @appendPQExpBufferStr(ptr noundef %11, ptr noundef nonnull @.str.233) #15
  %.not68 = icmp eq ptr %20, null
  br i1 %.not68, label %33, label %30

30:                                               ; preds = %26
  %31 = load i8, ptr %20, align 1
  %.not69 = icmp eq i8 %31, 0
  br i1 %.not69, label %33, label %32

32:                                               ; preds = %30
  tail call void (ptr, ptr, ...) @appendPQExpBuffer(ptr noundef %11, ptr noundef nonnull @.str.273, ptr noundef %23, ptr noundef nonnull %20) #15
  br label %33

33:                                               ; preds = %32, %30, %26
  %.b70 = load i1, ptr @skip_acls, align 1
  br i1 %.b70, label %38, label %34

34:                                               ; preds = %33
  %35 = load i32, ptr @server_version, align 4
  %36 = tail call zeroext i1 @buildACLCommands(ptr noundef %23, ptr noundef null, ptr noundef null, ptr noundef nonnull @.str.274, ptr noundef %18, ptr noundef %19, ptr noundef %16, ptr noundef nonnull @.str.120, i32 noundef %35, ptr noundef %11) #15
  br i1 %36, label %38, label %37

37:                                               ; preds = %34
  tail call void (i32, i32, ptr, ...) @pg_log_generic(i32 noundef 4, i32 noundef 0, ptr noundef nonnull @.str.275, ptr noundef %18, ptr noundef %15) #15
  tail call void @PQfinish(ptr noundef nonnull %0) #15
  tail call void @exit(i32 noundef 1) #18
  unreachable

38:                                               ; preds = %34, %33
  %39 = load i32, ptr @no_comments, align 4
  %40 = icmp eq i32 %39, 0
  %41 = icmp ne ptr %21, null
  %or.cond = select i1 %40, i1 %41, i1 false
  br i1 %or.cond, label %42, label %45

42:                                               ; preds = %38
  %43 = load i8, ptr %21, align 1
  %.not71 = icmp eq i8 %43, 0
  br i1 %.not71, label %45, label %44

44:                                               ; preds = %42
  tail call void (ptr, ptr, ...) @appendPQExpBuffer(ptr noundef %11, ptr noundef nonnull @.str.276, ptr noundef %23) #15
  tail call void @appendStringLiteralConn(ptr noundef %11, ptr noundef nonnull %21, ptr noundef nonnull %0) #15
  tail call void @appendPQExpBufferStr(ptr noundef %11, ptr noundef nonnull @.str.233) #15
  br label %45

45:                                               ; preds = %44, %42, %38
  %46 = load i32, ptr @no_security_labels, align 4
  %.not72 = icmp eq i32 %46, 0
  br i1 %.not72, label %47, label %51

47:                                               ; preds = %45
  %48 = tail call ptr @createPQExpBuffer() #15
  tail call void @buildShSecLabelQuery(ptr noundef nonnull @.str.277, i32 noundef %14, ptr noundef %48) #15
  %49 = load ptr, ptr %48, align 8
  %50 = tail call fastcc ptr @executeQuery(ptr noundef nonnull %0, ptr noundef %49)
  tail call void @emitShSecLabels(ptr noundef nonnull %0, ptr noundef nonnull %50, ptr noundef %11, ptr noundef nonnull @.str.274, ptr noundef %15) #15
  tail call void @PQclear(ptr noundef nonnull %50) #15
  tail call void @destroyPQExpBuffer(ptr noundef nonnull %48) #15
  br label %51

51:                                               ; preds = %47, %45
  %52 = load ptr, ptr @OPF, align 8
  %53 = load ptr, ptr %11, align 8
  %54 = tail call i32 (ptr, ptr, ...) @pg_fprintf(ptr noundef %52, ptr noundef nonnull @.str.80, ptr noundef %53) #15
  tail call void @free(ptr noundef %23) #15
  tail call void @destroyPQExpBuffer(ptr noundef nonnull %11) #15
  %55 = add nuw nsw i32 %.074, 1
  %56 = tail call i32 @PQntuples(ptr noundef nonnull %2) #15
  %57 = icmp slt i32 %55, %56
  br i1 %57, label %.lr.ph, label %._crit_edge, !llvm.loop !30

._crit_edge:                                      ; preds = %51, %8
  tail call void @PQclear(ptr noundef nonnull %2) #15
  %58 = load ptr, ptr @OPF, align 8
  %59 = tail call i32 (ptr, ptr, ...) @pg_fprintf(ptr noundef %58, ptr noundef nonnull @.str.186) #15
  ret void
}